Certificate:
    Data:
        Version: 3 (0x2)
        Serial Number: 2 (0x2)
        Signature Algorithm: sha1WithRSAEncryption
        Issuer: C=ES, ST=Murcia, L=Murcia, O=umu, OU=umu, CN=catest
        Validity
            Not Before: Apr 12 19:45:12 2010 GMT
            Not After : Apr 12 19:45:12 2011 GMT
        Subject: C=ES, ST=Murcia, O=umu, OU=umu, CN=user
        Subject Public Key Info:
            Public Key Algorithm: rsaEncryption
            RSA Public Key: (1024 bit)
                Modulus (1024 bit):
                    00:bc:b1:03:27:a2:bc:f5:74:9d:be:3e:a1:01:88:
                    fe:70:f1:d0:e2:ca:48:93:06:15:44:03:2a:a7:0f:
                    37:71:71:13:d9:e8:51:53:59:ba:58:44:19:e4:d0:
                    d1:bb:ff:0d:04:9b:dd:e5:5d:05:51:2f:16:d3:3e:
                    b2:22:d4:76:8f:9f:0e:8d:2f:d9:2b:3b:ed:7f:e2:
                    65:78:8b:9f:ab:b9:57:9a:7e:c8:b8:26:2b:c0:b3:
                    f7:9f:e2:c7:1c:a1:02:f0:45:9a:7a:fd:6e:72:85:
                    1a:9d:0c:37:2d:ba:3a:f0:0c:b8:3d:14:2a:3a:d9:
                    b0:a6:22:f6:f4:eb:88:7e:f7
                Exponent: 65537 (0x10001)
        X509v3 extensions:
            X509v3 Basic Constraints: 
                CA:FALSE
            Netscape Comment: 
                OpenSSL Generated Certificate
            X509v3 Subject Key Identifier: 
                6E:DF:DA:B9:94:2C:56:06:70:E9:F9:40:F6:C6:63:A6:E0:C2:42:97
            X509v3 Authority Key Identifier: 
                keyid:D3:B4:F1:D7:3F:B0:1E:6A:E0:81:59:1B:87:FC:85:79:A4:CF:2F:D5

    Signature Algorithm: sha1WithRSAEncryption
        86:43:10:f2:e6:fa:81:c3:e2:26:d2:3e:9e:e7:68:e2:15:e0:
        dd:af:10:c4:00:85:e1:9b:0b:62:04:fa:3b:60:92:0c:94:68:
        4e:19:55:1f:30:58:8a:e1:97:6c:f5:b9:6a:a8:e6:76:f3:fc:
        69:69:5e:76:0e:7f:84:cb:9e:2f:e0:52:c3:3d:f7:b4:c3:0b:
        30:1f:8b:e5:0b:bc:37:63:55:49:b0:17:f8:56:2f:c4:6e:8a:
        fd:b9:0e:d1:08:84:01:e0:81:ac:c8:c1:e3:d8:23:20:3c:bb:
        db:ac:ed:01:49:22:c6:b0:1d:17:c7:72:d8:23:5b:9d:d7:8f:
        e1:25
-----BEGIN CERTIFICATE-----
MIICljCCAf+gAwIBAgIBAjANBgkqhkiG9w0BAQUFADBcMQswCQYDVQQGEwJFUzEP
MA0GA1UECBMGTXVyY2lhMQ8wDQYDVQQHEwZNdXJjaWExDDAKBgNVBAoTA3VtdTEM
MAoGA1UECxMDdW11MQ8wDQYDVQQDEwZjYXRlc3QwHhcNMTAwNDEyMTk0NTEyWhcN
MTEwNDEyMTk0NTEyWjBJMQswCQYDVQQGEwJFUzEPMA0GA1UECBMGTXVyY2lhMQww
CgYDVQQKEwN1bXUxDDAKBgNVBAsTA3VtdTENMAsGA1UEAxMEdXNlcjCBnzANBgkq
hkiG9w0BAQEFAAOBjQAwgYkCgYEAvLEDJ6K89XSdvj6hAYj+cPHQ4spIkwYVRAMq
pw83cXET2ehRU1m6WEQZ5NDRu/8NBJvd5V0FUS8W0z6yItR2j58OjS/ZKzvtf+Jl
eIufq7lXmn7IuCYrwLP3n+LHHKEC8EWaev1ucoUanQw3Lbo68Ay4PRQqOtmwpiL2
9OuIfvcCAwEAAaN7MHkwCQYDVR0TBAIwADAsBglghkgBhvhCAQ0EHxYdT3BlblNT
TCBHZW5lcmF0ZWQgQ2VydGlmaWNhdGUwHQYDVR0OBBYEFG7f2rmULFYGcOn5QPbG
Y6bgwkKXMB8GA1UdIwQYMBaAFNO08dc/sB5q4IFZG4f8hXmkzy/VMA0GCSqGSIb3
DQEBBQUAA4GBAIZDEPLm+oHD4ibSPp7naOIV4N2vEMQAheGbC2IE+jtgkgyUaE4Z
VR8wWIrhl2z1uWqo5nbz/GlpXnYOf4TLni/gUsM997TDCzAfi+ULvDdjVUmwF/hW
L8Ruiv25DtEIhAHggazIwePYIyA8u9us7QFJIsawHRfHctgjW53Xj+El
-----END CERTIFICATE-----
