Certificate:
    Data:
        Version: 3 (0x2)
        Serial Number: 1 (0x1)
        Signature Algorithm: md5WithRSAEncryption
        Issuer: C=FR, ST=Radius, L=Somewhere, O=Example Inc./emailAddress=admin@example.com, CN=Example Certificate Authority
        Validity
            Not Before: Mar 18 17:33:01 2010 GMT
            Not After : Mar 18 17:33:01 2011 GMT
        Subject: C=FR, ST=Radius, O=Example Inc., CN=Example Server Certificate/emailAddress=admin@example.com
        Subject Public Key Info:
            Public Key Algorithm: rsaEncryption
            RSA Public Key: (2048 bit)
                Modulus (2048 bit):
                    00:c8:fd:7a:94:48:e9:6b:e7:d0:3a:fb:ce:89:e6:
                    98:31:3f:05:ca:76:63:c8:17:3c:3d:fb:c3:c5:b2:
                    f6:29:2a:65:81:ff:e9:9f:3c:3f:56:14:20:94:65:
                    9b:75:83:71:09:cf:b0:ad:d7:19:3c:0c:c6:99:74:
                    7c:82:62:29:79:9b:02:ab:c2:6e:04:ab:cf:e9:dc:
                    48:03:d4:55:64:42:44:a9:3a:7f:8a:5a:c2:87:d2:
                    61:b6:f7:06:04:4c:42:6e:1c:6a:48:29:70:28:b0:
                    16:50:68:bb:7e:cf:d5:43:85:2f:e1:4b:08:1f:d0:
                    f4:60:ba:14:e1:88:6c:3c:85:4a:09:55:83:ff:33:
                    d7:6c:c5:65:6a:f3:4f:da:f9:41:5c:c3:08:1f:20:
                    2a:74:38:39:c0:42:77:a5:ee:d9:67:c8:6d:20:64:
                    40:8f:30:8c:3a:f0:5b:0f:cd:16:b6:d7:a3:cb:e0:
                    7b:f2:37:9b:d6:d9:0f:e9:0e:ef:ee:40:f3:ff:65:
                    b9:03:8a:b6:e1:a9:57:9d:a4:12:a1:4c:54:e9:fd:
                    99:86:36:f4:d3:e8:a5:31:fa:df:92:24:33:4b:d6:
                    8c:92:4f:37:34:c2:02:f4:e7:81:49:9f:81:28:89:
                    43:65:d0:8b:83:c0:f4:ac:69:13:48:f3:a1:6e:72:
                    ff:31
                Exponent: 65537 (0x10001)
        X509v3 extensions:
            X509v3 Extended Key Usage: 
                TLS Web Server Authentication
    Signature Algorithm: md5WithRSAEncryption
        2f:d7:01:55:f8:70:ff:5f:25:d1:84:aa:f2:c6:39:1b:9c:8b:
        a9:ba:52:53:a4:f7:c1:41:c7:70:86:66:1f:72:55:22:3f:12:
        96:99:e3:ec:20:2e:58:ea:25:70:14:49:31:51:ba:38:c7:f4:
        ac:31:c5:0e:8a:3c:1e:2b:23:6f:9a:04:82:ce:de:8c:14:45:
        e4:33:65:1d:e2:8d:73:39:3b:68:b0:20:44:1d:62:fe:4d:07:
        b5:7c:73:77:6b:d4:b9:41:65:cd:69:d5:a2:27:06:02:c8:64:
        b5:0f:a8:bc:66:9a:1e:e7:b6:7c:20:30:aa:63:79:41:f5:fd:
        ad:5d:c3:dd:e1:22:36:e8:85:99:0f:55:9e:ce:be:d0:65:52:
        7a:fc:9e:91:1e:94:d0:56:62:3f:7a:2c:c5:c1:70:22:19:5d:
        4e:c3:73:cc:bf:fc:9f:45:3e:58:54:6e:31:9e:a3:26:83:ad:
        9d:34:ca:d7:48:df:00:1e:40:6e:f5:0b:66:ad:4f:b5:f0:60:
        7e:e7:9f:e4:40:86:5a:0c:fa:d4:8a:18:31:46:b8:07:2d:dd:
        d5:d7:8e:b5:24:61:c9:8e:84:25:3a:a6:2b:cf:3f:cb:54:bc:
        3a:91:ce:14:b7:9c:00:1c:35:f3:aa:19:cb:41:76:ec:5a:69:
        93:92:b1:f3
-----BEGIN CERTIFICATE-----
MIIDojCCAoqgAwIBAgIBATANBgkqhkiG9w0BAQQFADCBkzELMAkGA1UEBhMCRlIx
DzANBgNVBAgTBlJhZGl1czESMBAGA1UEBxMJU29tZXdoZXJlMRUwEwYDVQQKEwxF
eGFtcGxlIEluYy4xIDAeBgkqhkiG9w0BCQEWEWFkbWluQGV4YW1wbGUuY29tMSYw
JAYDVQQDEx1FeGFtcGxlIENlcnRpZmljYXRlIEF1dGhvcml0eTAeFw0xMDAzMTgx
NzMzMDFaFw0xMTAzMTgxNzMzMDFaMHwxCzAJBgNVBAYTAkZSMQ8wDQYDVQQIEwZS
YWRpdXMxFTATBgNVBAoTDEV4YW1wbGUgSW5jLjEjMCEGA1UEAxMaRXhhbXBsZSBT
ZXJ2ZXIgQ2VydGlmaWNhdGUxIDAeBgkqhkiG9w0BCQEWEWFkbWluQGV4YW1wbGUu
Y29tMIIBIjANBgkqhkiG9w0BAQEFAAOCAQ8AMIIBCgKCAQEAyP16lEjpa+fQOvvO
ieaYMT8FynZjyBc8PfvDxbL2KSplgf/pnzw/VhQglGWbdYNxCc+wrdcZPAzGmXR8
gmIpeZsCq8JuBKvP6dxIA9RVZEJEqTp/ilrCh9JhtvcGBExCbhxqSClwKLAWUGi7
fs/VQ4Uv4UsIH9D0YLoU4YhsPIVKCVWD/zPXbMVlavNP2vlBXMMIHyAqdDg5wEJ3
pe7ZZ8htIGRAjzCMOvBbD80Wttejy+B78jeb1tkP6Q7v7kDz/2W5A4q24alXnaQS
oUxU6f2Zhjb00+ilMfrfkiQzS9aMkk83NMIC9OeBSZ+BKIlDZdCLg8D0rGkTSPOh
bnL/MQIDAQABoxcwFTATBgNVHSUEDDAKBggrBgEFBQcDATANBgkqhkiG9w0BAQQF
AAOCAQEAL9cBVfhw/18l0YSq8sY5G5yLqbpSU6T3wUHHcIZmH3JVIj8Slpnj7CAu
WOolcBRJMVG6OMf0rDHFDoo8Hisjb5oEgs7ejBRF5DNlHeKNczk7aLAgRB1i/k0H
tXxzd2vUuUFlzWnVoicGAshktQ+ovGaaHue2fCAwqmN5QfX9rV3D3eEiNuiFmQ9V
ns6+0GVSevyekR6U0FZiP3osxcFwIhldTsNzzL/8n0U+WFRuMZ6jJoOtnTTK10jf
AB5AbvULZq1PtfBgfuef5ECGWgz61IoYMUa4By3d1deOtSRhyY6EJTqmK88/y1S8
OpHOFLecABw186oZy0F27Fppk5Kx8w==
-----END CERTIFICATE-----
