Certificate:
    Data:
        Version: 3 (0x2)
        Serial Number: 2 (0x2)
        Signature Algorithm: md5WithRSAEncryption
        Issuer: C=FR, ST=Radius, O=Example Inc., CN=Example Server Certificate/emailAddress=admin@example.com
        Validity
            Not Before: Mar 18 17:52:37 2010 GMT
            Not After : Mar 18 17:52:37 2011 GMT
        Subject: C=FR, ST=Radius, O=Example Inc., CN=user@example.com/emailAddress=user@example.com
        Subject Public Key Info:
            Public Key Algorithm: rsaEncryption
            RSA Public Key: (2048 bit)
                Modulus (2048 bit):
                    00:cb:20:04:02:5f:75:f7:03:30:dc:54:ef:b7:22:
                    c5:ee:e4:71:f7:b0:d3:d0:da:a6:38:17:41:4e:23:
                    6f:91:53:a3:f3:6a:5f:3b:41:0f:2a:91:d5:77:db:
                    7f:dd:cf:e1:70:78:6e:00:8f:c1:14:62:d5:ca:0a:
                    e2:2f:b9:03:b6:83:82:d6:62:38:fa:31:79:0a:ff:
                    7d:5e:58:10:19:fe:d0:c4:d3:21:e4:33:29:42:36:
                    51:12:0c:f7:5a:04:70:86:e4:58:7c:49:d9:c6:35:
                    7d:ed:86:b3:e3:c1:58:a7:b6:60:43:79:d5:bf:ea:
                    8a:89:f9:c8:2f:d9:1b:c3:86:2a:88:bc:ef:a6:bd:
                    0a:86:da:85:29:b0:dc:ba:9a:c2:19:d4:be:4d:0e:
                    b3:51:50:3c:8c:01:64:ad:ef:46:76:8d:bd:21:15:
                    6a:96:58:80:15:0e:8d:99:c0:f1:2c:f7:e5:c8:a0:
                    75:cd:73:78:7d:0e:9b:99:d5:e3:2c:32:0f:04:90:
                    e7:68:fd:ba:2b:d4:2d:38:79:10:e6:37:d6:d2:fc:
                    0f:2e:c9:4d:61:63:b6:78:f8:79:0a:35:fc:37:62:
                    a2:08:df:21:d0:60:2c:57:61:c3:54:01:3c:79:22:
                    55:f5:ec:d6:84:ee:e9:02:8a:06:1a:d1:b1:70:fd:
                    23:47
                Exponent: 65537 (0x10001)
        X509v3 extensions:
            X509v3 Extended Key Usage: 
                TLS Web Client Authentication
    Signature Algorithm: md5WithRSAEncryption
        54:87:ae:c5:e3:fd:5c:a0:30:ff:d6:a2:44:78:c8:3b:1d:1f:
        bd:6d:a1:7a:68:32:cd:e5:34:9a:88:36:e4:ff:c4:c7:9e:56:
        e8:07:95:86:87:31:30:e5:a7:43:44:21:d8:9f:30:6a:5d:74:
        57:fd:bc:11:96:f7:34:da:8d:2c:a3:82:f0:23:d4:2f:fe:d6:
        8c:99:59:d9:dd:bd:42:37:d3:f1:8a:46:93:1c:44:90:b4:d2:
        6c:13:90:b2:30:16:d1:88:e4:96:ab:ff:84:a0:66:da:f8:9c:
        2b:20:94:22:b0:d8:ca:a0:77:a4:14:37:54:37:19:2f:a2:35:
        91:51:ac:c3:37:8f:7c:fb:08:12:b1:aa:f7:09:80:ca:a3:81:
        c8:ca:cf:b3:f6:ca:ed:ea:3b:eb:57:36:28:19:aa:f1:0a:0c:
        a9:00:89:63:e6:ed:2f:b8:f0:e0:f7:be:b2:8a:3c:18:a1:d0:
        12:3c:45:a6:4f:fd:97:f6:74:cd:1b:d0:c4:37:10:d9:08:5f:
        9d:d3:bc:21:98:f7:a2:dc:a3:9a:29:78:73:c4:6f:70:81:66:
        d4:85:af:e9:8d:0a:aa:8f:6a:09:ef:06:6c:3f:4b:a6:dc:ce:
        25:47:ad:2c:f9:b5:68:b6:81:57:1e:45:da:54:76:d8:89:78:
        8d:6c:d8:6e
-----BEGIN CERTIFICATE-----
MIIDfzCCAmegAwIBAgIBAjANBgkqhkiG9w0BAQQFADB8MQswCQYDVQQGEwJGUjEP
MA0GA1UECBMGUmFkaXVzMRUwEwYDVQQKEwxFeGFtcGxlIEluYy4xIzAhBgNVBAMT
GkV4YW1wbGUgU2VydmVyIENlcnRpZmljYXRlMSAwHgYJKoZIhvcNAQkBFhFhZG1p
bkBleGFtcGxlLmNvbTAeFw0xMDAzMTgxNzUyMzdaFw0xMTAzMTgxNzUyMzdaMHEx
CzAJBgNVBAYTAkZSMQ8wDQYDVQQIEwZSYWRpdXMxFTATBgNVBAoTDEV4YW1wbGUg
SW5jLjEZMBcGA1UEAxQQdXNlckBleGFtcGxlLmNvbTEfMB0GCSqGSIb3DQEJARYQ
dXNlckBleGFtcGxlLmNvbTCCASIwDQYJKoZIhvcNAQEBBQADggEPADCCAQoCggEB
AMsgBAJfdfcDMNxU77cixe7kcfew09DapjgXQU4jb5FTo/NqXztBDyqR1Xfbf93P
4XB4bgCPwRRi1coK4i+5A7aDgtZiOPoxeQr/fV5YEBn+0MTTIeQzKUI2URIM91oE
cIbkWHxJ2cY1fe2Gs+PBWKe2YEN51b/qion5yC/ZG8OGKoi876a9CobahSmw3Lqa
whnUvk0Os1FQPIwBZK3vRnaNvSEVapZYgBUOjZnA8Sz35cigdc1zeH0Om5nV4ywy
DwSQ52j9uivULTh5EOY31tL8Dy7JTWFjtnj4eQo1/DdiogjfIdBgLFdhw1QBPHki
VfXs1oTu6QKKBhrRsXD9I0cCAwEAAaMXMBUwEwYDVR0lBAwwCgYIKwYBBQUHAwIw
DQYJKoZIhvcNAQEEBQADggEBAFSHrsXj/VygMP/WokR4yDsdH71toXpoMs3lNJqI
NuT/xMeeVugHlYaHMTDlp0NEIdifMGpddFf9vBGW9zTajSyjgvAj1C/+1oyZWdnd
vUI30/GKRpMcRJC00mwTkLIwFtGI5Jar/4SgZtr4nCsglCKw2Mqgd6QUN1Q3GS+i
NZFRrMM3j3z7CBKxqvcJgMqjgcjKz7P2yu3qO+tXNigZqvEKDKkAiWPm7S+48OD3
vrKKPBih0BI8RaZP/Zf2dM0b0MQ3ENkIX53TvCGY96Lco5opeHPEb3CBZtSFr+mN
CqqPagnvBmw/S6bcziVHrSz5tWi2gVceRdpUdtiJeI1s2G4=
-----END CERTIFICATE-----
