Certificate:
    Data:
        Version: 3 (0x2)
        Serial Number: 1 (0x1)
        Signature Algorithm: sha1WithRSAEncryption
        Issuer: C=ES, ST=Murcia, L=Murcia, O=umu, OU=umu, CN=catest
        Validity
            Not Before: Apr 12 19:40:33 2010 GMT
            Not After : Apr 12 19:40:33 2011 GMT
        Subject: C=ES, ST=Murcia, O=umu, OU=umu, CN=servertest
        Subject Public Key Info:
            Public Key Algorithm: rsaEncryption
            RSA Public Key: (1024 bit)
                Modulus (1024 bit):
                    00:ea:a9:97:de:8b:39:e4:4c:0d:91:40:45:1e:25:
                    cf:b9:7a:14:83:be:b9:c8:bb:f9:a0:d9:a4:48:56:
                    de:05:6b:35:b9:8b:f4:2c:bc:a8:84:f4:02:83:cc:
                    d2:67:d7:62:d6:4a:9a:b9:30:34:31:2b:a9:5b:18:
                    a2:89:f1:4a:74:2f:d5:2c:6d:9f:33:34:22:25:ad:
                    ad:31:08:b4:4e:75:40:02:56:a0:bf:2a:5f:c1:eb:
                    29:10:8a:23:51:e6:b6:77:b3:1f:a7:dd:bd:28:42:
                    f3:63:63:cf:b3:ca:88:67:f0:8e:f4:09:42:bd:01:
                    7f:a6:79:f3:f1:56:a9:57:11
                Exponent: 65537 (0x10001)
        X509v3 extensions:
            X509v3 Basic Constraints: 
                CA:FALSE
            Netscape Cert Type: 
                SSL Server
            Netscape Comment: 
                OpenSSL Generated Certificate
            X509v3 Subject Key Identifier: 
                0E:D6:A9:64:E1:3A:35:A7:25:7D:A5:1A:72:A3:0D:31:0A:5D:BE:62
            X509v3 Authority Key Identifier: 
                keyid:D3:B4:F1:D7:3F:B0:1E:6A:E0:81:59:1B:87:FC:85:79:A4:CF:2F:D5

    Signature Algorithm: sha1WithRSAEncryption
        8e:73:6b:d9:38:dc:0f:9e:ad:13:7f:ac:91:70:f3:e6:52:78:
        b8:0f:8d:1a:01:78:6d:80:7a:b0:68:5d:0b:d7:34:4a:59:ff:
        48:51:e2:b6:09:a8:3b:84:29:a4:9d:05:6b:14:bd:d2:d6:f6:
        c9:3e:22:1d:10:bd:d7:d8:13:a8:d0:87:b3:48:0b:f0:ea:c0:
        67:72:dc:ff:a8:76:b3:e4:c1:20:38:dd:3c:d1:eb:cf:9b:25:
        b8:58:cc:6d:9d:28:36:ab:08:b4:57:2a:14:22:52:54:cd:c6:
        48:32:a4:57:1e:b3:0a:5f:df:6d:50:82:e0:3d:cc:48:59:e3:
        48:27
-----BEGIN CERTIFICATE-----
MIICsTCCAhqgAwIBAgIBATANBgkqhkiG9w0BAQUFADBcMQswCQYDVQQGEwJFUzEP
MA0GA1UECBMGTXVyY2lhMQ8wDQYDVQQHEwZNdXJjaWExDDAKBgNVBAoTA3VtdTEM
MAoGA1UECxMDdW11MQ8wDQYDVQQDEwZjYXRlc3QwHhcNMTAwNDEyMTk0MDMzWhcN
MTEwNDEyMTk0MDMzWjBPMQswCQYDVQQGEwJFUzEPMA0GA1UECBMGTXVyY2lhMQww
CgYDVQQKEwN1bXUxDDAKBgNVBAsTA3VtdTETMBEGA1UEAxMKc2VydmVydGVzdDCB
nzANBgkqhkiG9w0BAQEFAAOBjQAwgYkCgYEA6qmX3os55EwNkUBFHiXPuXoUg765
yLv5oNmkSFbeBWs1uYv0LLyohPQCg8zSZ9di1kqauTA0MSupWxiiifFKdC/VLG2f
MzQiJa2tMQi0TnVAAlagvypfwespEIojUea2d7Mfp929KELzY2PPs8qIZ/CO9AlC
vQF/pnnz8VapVxECAwEAAaOBjzCBjDAJBgNVHRMEAjAAMBEGCWCGSAGG+EIBAQQE
AwIGQDAsBglghkgBhvhCAQ0EHxYdT3BlblNTTCBHZW5lcmF0ZWQgQ2VydGlmaWNh
dGUwHQYDVR0OBBYEFA7WqWThOjWnJX2lGnKjDTEKXb5iMB8GA1UdIwQYMBaAFNO0
8dc/sB5q4IFZG4f8hXmkzy/VMA0GCSqGSIb3DQEBBQUAA4GBAI5za9k43A+erRN/
rJFw8+ZSeLgPjRoBeG2AerBoXQvXNEpZ/0hR4rYJqDuEKaSdBWsUvdLW9sk+Ih0Q
vdfYE6jQh7NIC/DqwGdy3P+odrPkwSA43TzR68+bJbhYzG2dKDarCLRXKhQiUlTN
xkgypFceswpf321QguA9zEhZ40gn
-----END CERTIFICATE-----
